(lp1
(F1.2487619999999999
F1.5558339999999999
S'S0'
p2
Ntp3
a(F2.0676220000000001
F3.3163830000000001
S'S1'
p4
Ntp5
a(F4.0226499999999996
F4.4013730000000004
S'S0'
p6
Ntp7
a(F4.667503
F7.7075209999999998
S'S1'
p8
Ntp9
a(F8.1783649999999994
F9.6830210000000001
S'S0'
p10
Ntp11
a(F11.279798
F19.775472000000001
S'S1'
p12
Ntp13
a(F19.939243999999999
F21.536021000000002
S'S0'
p14
Ntp15
a(F22.457238
F30.727725
S'S1'
p16
Ntp17
a.