(lp1
(F2.3904559999999999
F2.8281450000000001
S'S0'
p2
Ntp3
a(F3.3668390000000001
F5.3869429999999996
S'S1'
p4
Ntp5
a(F5.4879480000000003
F10.672881
S'S0'
p6
Ntp7
a(F11.278912
F23.702549000000001
S'S1'
p8
Ntp9
a(F24.072901999999999
F26.884212000000002
S'S0'
p10
Ntp11
a(F27.254564999999999
F36.850057
S'S1'
p12
Ntp13
a(F36.850057
F45.351326
S'S0'
p14
Ntp15
a(F45.755347
F51.984000000000002
S'S1'
p16
Ntp17
a.