(lp1
(F24.499351999999998
F27.330389
S'S0'
p2
Ntp3
a(F27.330389
F31.468057000000002
S'S1'
p4
Ntp5
a(F33.428004999999999
F34.843522999999998
S'S0'
p6
Ntp7
a(F34.843522999999998
F36.259041000000003
S'S1'
p8
Ntp9
a(F36.585698999999998
F39.035634999999999
S'S0'
p10
Ntp11
a(F39.035634999999999
F40.287824000000001
S'S1'
p12
Ntp13
a(F42.628872999999999
F44.806592999999999
S'S0'
p14
Ntp15
a(F69.033731000000003
F70.068147999999994
S'S2'
p16
Ntp17
a(F70.449248999999995
F73.988044000000002
S'S1'
p18
Ntp19
a(F74.042486999999994
F75.730220000000003
S'S2'
p20
Ntp21
a(F76.165763999999996
F86.618820999999997
S'S1'
p22
Ntp23
a(F86.836592999999993
F99.848472000000001
S'S2'
p24
Ntp25
a(F101.536205
F105.782759
S'S1'
p26
Ntp27
a(F105.782759
F119.339067
S'S2'
p28
Ntp29
a(F121.02680100000001
F140.35406699999999
S'S1'
p30
Ntp31
a(F140.89849699999999
F148.35718900000001
S'S2'
p32
Ntp33
a(F148.35718900000001
F152.60374400000001
S'S1'
p34
Ntp35
a(F152.93040199999999
F158.048044
S'S2'
p36
Ntp37
a(F158.048044
F167.90222800000001
S'S1'
p38
Ntp39
a.