(lp1
(F1.029604
F1.830406
S'S0'
p2
Ntp3
a(F2.0592069999999998
F2.8218760000000001
S'S1'
p4
Ntp5
a(F3.0888110000000002
F4.2709479999999997
S'S0'
p6
Ntp7
a(F4.2709479999999997
F8.5800300000000007
S'S1'
p8
Ntp9
a(F9.3426989999999996
F10.067235
S'S0'
p10
Ntp11
a(F10.067235
F16.816859000000001
S'S1'
p12
Ntp13
a(F17.884595999999998
F19.104866999999999
S'S0'
p14
Ntp15
a(F19.257400000000001
F23.375814999999999
S'S1'
p16
Ntp17
a(F24.519818999999998
F28.447565999999998
S'S0'
p18
Ntp19
a(F28.447565999999998
F29.362769
S'S1'
p20
Ntp21
a(F29.782236999999999
F33.748117999999998
S'S0'
p22
Ntp23
a(F33.748117999999998
F36.188659000000001
S'S1'
p24
Ntp25
a(F36.989462000000003
F38.209733
S'S0'
p26
Ntp27
a(F38.209733
F48.658302999999997
S'S1'
p28
Ntp29
a(F49.382838999999997
F60.174610000000001
S'S0'
p30
Ntp31
a(F60.670344999999998
F64.636224999999996
S'S1'
p32
Ntp33
a(F66.009029999999996
F67.953836999999993
S'S0'
p34
Ntp35
a(F68.030103999999994
F82.520820999999998
S'S1'
p36
Ntp37
a(F82.520820999999998
F84.389360999999994
S'S0'
p38
Ntp39
a(F84.389360999999994
F109.55744799999999
S'S1'
p40
Ntp41
a(F110.01505
F111.959857
S'S0'
p42
Ntp43
a(F111.959857
F123.628697
S'S1'
p44
Ntp45
a(F123.89563099999999
F124.734568
S'S0'
p46
Ntp47
a(F124.734568
F128.852982
S'S1'
p48
Ntp49
a(F128.852982
F129.882586
S'S0'
p50
Ntp51
a(F129.882586
F131.36979099999999
S'S1'
p52
Ntp53
a(F131.36979099999999
F132.20872700000001
S'S0'
p54
Ntp55
a(F132.20872700000001
F133.42899800000001
S'S1'
p56
Ntp57
a(F133.42899800000001
F138.34821500000001
S'S0'
p58
Ntp59
a(F138.34821500000001
F152.915199
S'S1'
p60
Ntp61
a.