(lp1
(F1.183907
F1.8416330000000001
S'S0'
p2
Ntp3
a(F1.9896210000000001
F2.7460059999999999
S'S1'
p4
Ntp5
a(F3.4366180000000002
F4.2587760000000001
S'S0'
p6
Ntp7
a(F4.2587760000000001
F7.9913699999999999
S'S1'
p8
Ntp9
a(F8.6819830000000007
F10.293411000000001
S'S0'
p10
Ntp11
a(F10.375627
F26.457025999999999
S'S1'
p12
Ntp13
a(F27.262740999999998
F29.696327
S'S0'
p14
Ntp15
a(F29.696327
F30.682915000000001
S'S1'
p16
Ntp17
a(F31.406414000000002
F33.132944999999999
S'S0'
p18
Ntp19
a.