(lp1
(F0.20000000000000001
F2.3999999999999999
S'S0'
p2
S'F'
tp3
a(F2.3999999999999999
F20.039999999999999
S'S1'
p4
S'M'
tp5
a(F20.039999999999999
F22.300000000000001
g2
S'F'
tp6
a(F22.399999999999999
F31.600000000000001
g4
S'M'
tp7
a(F38.700000000000003
F45.200000000000003
g2
S'F'
tp8
a(F63.200000000000003
F84.799999999999997
g2
S'F'
tp9
a(F84.900000000000006
F91.700000000000003
g4
S'M'
tp10
a(F93.400000000000006
F102.90000000000001
g2
S'F'
tp11
a(F103.3
F108.15000000000001
g4
S'M'
tp12
a(F109.5
F111.8
g2
S'F'
tp13
a(F112.7
F119.09999999999999
g4
S'M'
tp14
a(F120
F121.45
g2
S'F'
tp15
a(F136.80000000000001
F148.90000000000001
g2
S'F'
tp16
a(F149.5
F153.90000000000001
g4
S'M'
tp17
a(F154.09999999999999
F159.27000000000001
g2
S'F'
tp18
a(F160.30000000000001
F162.56
g2
S'F'
tp19
a(F162.56
F163.59999999999999
g4
S'M'
tp20
a.