(lp1
(F0
F2.3100000000000001
S'S0'
p2
VU
tp3
a(F2.3100000000000001
F19.719999999999999
S'S1'
p4
VU
tp5
a(F19.719999999999999
F22.32
g2
VU
tp6
a(F22.32
F23.870000000000001
g4
VU
tp7
a(F24.82
F31.260000000000002
g4
VU
tp8
a(F38.770000000000003
F84.670000000000002
g2
VU
tp9
a(F84.670000000000002
F91.579999999999998
g4
VU
tp10
a(F93.129999999999995
F103.37
g2
VU
tp11
a(F103.37
F108.04000000000001
g4
VU
tp12
a(F109.66
F111.06
g2
VU
tp13
a(F112.77
F119.06
g4
VU
tp14
a(F120.36
F121.70999999999999
g2
VU
tp15
a(F136.99000000000001
F144.99000000000001
g2
VU
tp16
a(F144.99000000000001
F146.25999999999999
g4
VU
tp17
a(F146.25999999999999
F148.69
g2
VU
tp18
a(F149.58000000000001
F154.19999999999999
g4
VU
tp19
a(F154.19999999999999
F163.41999999999999
g2
VU
tp20
a.