(lp1
(I0
F1.8999999999999999
S'S0'
p2
S'F'
tp3
a(F2.1000000000000001
F8.6999999999999993
S'S1'
p4
S'M'
tp5
a(F8.6999999999999993
F10.1
g2
S'F'
tp6
a(F10.1
F11.1
g4
S'M'
tp7
a(F13.6
F14.4
g2
S'F'
tp8
a(F14.4
F14.699999999999999
g4
S'M'
tp9
a(F17.899999999999999
F19.620000000000001
g2
S'F'
tp10
a(F53.899999999999999
F55.399999999999999
g2
S'F'
tp11
a(F57.200000000000003
F60.149999999999999
g4
S'M'
tp12
a(F63.399999999999999
F64.799999999999997
g2
S'F'
tp13
a(F64.799999999999997
F65.099999999999994
g4
S'M'
tp14
a(F75.400000000000006
F79.5
g2
S'F'
tp15
a(F83.400000000000006
F85.700000000000003
g4
S'M'
tp16
a(F86.989999999999995
F92.5
g2
S'F'
tp17
a(F92.799999999999997
F96.099999999999994
g4
S'M'
tp18
a(F97.799999999999997
F101.2
g2
S'F'
tp19
a(F102.09999999999999
F102.76000000000001
g4
S'M'
tp20
a(F104.98999999999999
F124.98999999999999
g2
S'F'
tp21
a(F127.54000000000001
F130.5
g4
S'M'
tp22
a(F131.80000000000001
F134.90000000000001
g2
S'F'
tp23
a(F135.09999999999999
F136.80000000000001
g4
S'M'
tp24
a(F137.19999999999999
F139.19999999999999
g2
S'F'
tp25
a.