(lp1
(F0
F5.5800000000000001
S'S1'
p2
VU
tp3
a(F5.5800000000000001
F8.6899999999999995
S'S0'
p4
VU
tp5
a(F8.6899999999999995
F10.1
g2
VU
tp6
a(F10.1
F10.720000000000001
g4
VU
tp7
a(F13.539999999999999
F19.809999999999999
g2
VU
tp8
a(F53.75
F55.5
g2
VU
tp9
a(F55.5
F61.490000000000002
g4
VU
tp10
a(F63.409999999999997
F68.459999999999994
g2
VU
tp11
a(F75.409999999999997
F79.299999999999997
g2
VU
tp12
a(F81.109999999999999
F85.640000000000001
g4
VU
tp13
a(F87.010000000000005
F96.060000000000002
g2
VU
tp14
a(F97.780000000000001
F102.09
g2
VU
tp15
a(F102.09
F102.67
g4
VU
tp16
a(F104.95
F115.23999999999999
g2
VU
tp17
a(F115.23999999999999
F117.16
g4
VU
tp18
a(F117.16
F125.23999999999999
g2
VU
tp19
a(F127.55
F130.47
g4
VU
tp20
a(F131.77000000000001
F134.00999999999999
g2
VU
tp21
a(F134.00999999999999
F136.96000000000001
g4
VU
tp22
a(F136.96000000000001
F139.75
g2
VU
tp23
a.