(lp1
(F0
F11.35
VS0
p2
VM
tp3
a(F11.35
F13.5
VS11
p4
VM
tp5
a(F13.5
F16.010000000000002
VS1
p6
VM
tp7
a(F16.010000000000002
F17.559999999999999
VS11
p8
VM
tp9
a(F17.559999999999999
F19.68
VS17
p10
VF
tp11
a(F19.68
F31.77
VS11
p12
VM
tp13
a(F31.77
F43.060000000000002
VS11
p14
VM
tp15
a(F43.060000000000002
F53.549999999999997
VS11
p16
VM
tp17
a(F53.549999999999997
F57.219999999999999
VS1
p18
VM
tp19
a(F57.219999999999999
F59.649999999999999
VS0
p20
VM
tp21
a(F59.649999999999999
F66.129999999999995
VS1
p22
VM
tp23
a(F66.129999999999995
F75.310000000000002
VS11
p24
VM
tp25
a(F75.310000000000002
F79.599999999999994
VS13
p26
VF
tp27
a(F79.599999999999994
F86.920000000000002
VS14
p28
VF
tp29
a(F86.920000000000002
F92.730000000000004
VS13
p30
VF
tp31
a(F92.730000000000004
F96.25
VS0
p32
VM
tp33
a(F96.25
F111.59
VS17
p34
VF
tp35
a(F111.59
F117.17
VS1
p36
VM
tp37
a(F117.17
F126.7
VS17
p38
VF
tp39
a(F126.7
F130.47
VS0
p40
VM
tp41
a(F130.47
F139.75
VS1
p42
VM
tp43
a.