(lp1
(F0
F3.1600000000000001
S'S0'
p2
VU
tp3
a(F3.1600000000000001
F7.9800000000000004
S'S1'
p4
VU
tp5
a(F9.0099999999999998
F18.02
g4
VU
tp6
a(F18.02
F20.199999999999999
g2
VU
tp7
a(F20.199999999999999
F24.48
g4
VU
tp8
a(F24.48
F25.82
g2
VU
tp9
a(F25.82
F32.719999999999999
g4
VU
tp10
a(F32.719999999999999
F39.119999999999997
g2
VU
tp11
a(F39.119999999999997
F45.049999999999997
g4
VU
tp12
a(F45.049999999999997
F52.119999999999997
g2
VU
tp13
a(F52.119999999999997
F54.659999999999997
g4
VU
tp14
a(F54.659999999999997
F66.75
g2
VU
tp15
a(F66.75
F76.930000000000007
g4
VU
tp16
a(F76.930000000000007
F79.819999999999993
g2
VU
tp17
a(F79.819999999999993
F81.049999999999997
g4
VU
tp18
a.