(lp1
(F0.60021100000000005
F3.1411030000000002
S'S0'
p2
S'F'
tp3
a(F3.1411030000000002
F18.546514999999999
S'S1'
p4
S'M'
tp5
a(F18.726579000000001
F20.527211000000001
S'S0'
p6
S'F'
tp7
a(F20.527211000000001
F23.148132
S'S1'
p8
S'M'
tp9
a(F23.988427000000001
F26.149186
S'S0'
p10
S'F'
tp11
a(F26.549327000000002
F29.030197999999999
S'S1'
p12
S'M'
tp13
a(F29.630409
F30.650767999999999
S'S0'
p14
S'F'
tp15
a(F31.591097999999999
F32.831533999999998
S'S1'
p16
S'M'
tp17
a(F36.392785000000003
F39.073726999999998
S'S0'
p18
S'F'
tp19
a(F39.073726999999998
F45.235891000000002
S'S1'
p20
S'M'
tp21
a(F46.476326999999998
F52.018273999999998
S'S0'
p22
S'F'
tp23
a(F52.138316000000003
F54.759236999999999
S'S1'
p24
S'M'
tp25
a(F55.959657999999997
F66.443341000000004
S'S0'
p26
S'F'
tp27
a(F66.803467999999995
F69.384375000000006
S'S1'
p28
S'M'
tp29
a(F70.244676999999996
F72.305401000000003
S'S0'
p30
S'F'
tp31
a(F72.645520000000005
F74.226074999999994
S'S1'
p32
S'M'
tp33
a(F74.826285999999996
F77.487221000000005
S'S0'
p34
S'F'
tp35
a.