(lp1
(F0.58283499999999999
F3.725984
S'S0'
p2
S'M'
tp3
a(F3.8716919999999999
F9.9498329999999999
S'S1'
p4
S'M'
tp5
a(F11.885680000000001
F18.692364999999999
S'S0'
p6
S'M'
tp7
a(F18.942150999999999
F19.64988
S'S1'
p8
S'M'
tp9
a(F19.795589
F22.730581999999998
S'S0'
p10
S'M'
tp11
a(F22.730581999999998
F23.06363
S'S1'
p12
S'M'
tp13
a(F24.562349999999999
F33.575484000000003
S'S0'
p14
S'M'
tp15
a(F33.762824000000002
F35.865194000000002
S'S1'
p16
S'M'
tp17
a(F36.905971999999998
F48.729205
S'S0'
p18
S'M'
tp19
a(F49.603458000000003
F55.473443000000003
S'S1'
p20
S'M'
tp21
a(F56.035463
F70.627163999999993
S'S0'
p22
S'M'
tp23
a(F71.355709000000004
F83.720146
S'S1'
p24
S'M'
tp25
a(F83.720146
F92.920619000000002
S'S0'
p26
S'M'
tp27
a(F92.920619000000002
F93.857319000000004
S'S1'
p28
S'M'
tp29
a(F93.857319000000004
F101.226024
S'S0'
p30
S'M'
tp31
a(F101.62152
F105.59729
S'S1'
p32
S'M'
tp33
a(F105.951154
F108.26168
S'S0'
p34
S'M'
tp35
a(F108.26168
F108.76125399999999
S'S1'
p36
S'M'
tp37
a(F110.11426400000001
F111.779509
S'S0'
p38
S'M'
tp39
a(F113.54883
F115.921803
S'S1'
p40
S'M'
tp41
a(F116.150774
F118.024174
S'S0'
p42
S'M'
tp43
a(F118.315592
F118.731903
S'S1'
p44
S'M'
tp45
a(F118.877611
F128.99396899999999
S'S0'
p46
S'M'
tp47
a(F129.93066899999999
F133.88562400000001
S'S1'
p48
S'M'
tp49
a(F133.88562400000001
F147.87367399999999
S'S0'
p50
S'M'
tp51
a(F147.97775200000001
F149.20586900000001
S'S1'
p52
S'M'
tp53
a(F150.433987
F166.91990300000001
S'S0'
p54
S'M'
tp55
a(F167.02398099999999
F168.29372900000001
S'S1'
p56
S'M'
tp57
a(F169.73000200000001
F177.43175600000001
S'S0'
p58
S'M'
tp59
a(F178.13948500000001
F180.116962
S'S1'
p60
S'M'
tp61
a(F181.303449
F183.926208
S'S0'
p62
S'M'
tp63
a(F183.926208
F184.71719899999999
S'S1'
p64
S'M'
tp65
a(F185.75797700000001
F189.213358
S'S0'
p66
S'M'
tp67
a(F189.213358
F193.001788
S'S1'
p68
S'M'
tp69
a(F194.04256599999999
F194.66703200000001
S'S0'
p70
S'M'
tp71
a(F194.66703200000001
F196.08249000000001
S'S1'
p72
S'M'
tp73
a(F197.123267
F197.62284099999999
S'S0'
p74
S'M'
tp75
a(F197.62284099999999
F198.497094
S'S1'
p76
S'M'
tp77
a(F199.57950199999999
F200.28723099999999
S'S1'
p78
S'M'
tp79
a(F200.28723099999999
F200.661911
S'S0'
p80
S'M'
tp81
a(F202.618573
F205.990692
S'S0'
p82
S'M'
tp83
a(F205.990692
F206.407003
S'S1'
p84
S'M'
tp85
a(F206.906576
F209.94564700000001
S'S0'
p86
S'M'
tp87
a(F209.94564700000001
F210.61174399999999
S'S1'
p88
S'M'
tp89
a(F212.193726
F214.35854399999999
S'S0'
p90
S'M'
tp91
a(F214.35854399999999
F214.774855
S'S1'
p92
S'M'
tp93
a(F216.10704999999999
F217.938818
S'S0'
p94
S'M'
tp95
a(F218.27186699999999
F219.02122700000001
S'S1'
p96
S'M'
tp97
a(F224.18348399999999
F228.09680700000001
S'S0'
p98
S'M'
tp99
a(F229.01269099999999
F229.92857599999999
S'S1'
p100
S'M'
tp101
a(F231.38566399999999
F233.966792
S'S0'
p102
S'M'
tp103
a(F233.966792
F234.84104600000001
S'S1'
p104
S'M'
tp105
a(F237.17238699999999
F239.670253
S'S0'
p106
S'M'
tp107
a(F239.670253
F240.627769
S'S1'
p108
S'M'
tp109
a(F242.20975100000001
F244.208044
S'S0'
p110
S'M'
tp111
a(F244.665986
F245.20719
S'S1'
p112
S'M'
tp113
a(F246.74754100000001
F249.45356200000001
S'S0'
p114
S'M'
tp115
a(F249.62008700000001
F250.03639799999999
S'S1'
p116
S'M'
tp117
a(F250.03639799999999
F260.36091099999999
S'S0'
p118
S'M'
tp119
a(F261.44332000000003
F263.608137
S'S1'
p120
S'M'
tp121
a(F264.81543900000003
F276.38888500000002
S'S0'
p122
S'M'
tp123
a(F277.970867
F279.13653799999997
S'S1'
p124
S'M'
tp125
a(F280.59362700000003
F283.88248399999998
S'S0'
p126
S'M'
tp127
a(F285.75588299999998
F304.698035
S'S0'
p128
S'M'
tp129
a(F304.698035
F307.19590099999999
S'S1'
p130
S'M'
tp131
a(F308.23667799999998
F314.73113000000001
S'S0'
p132
S'M'
tp133
a(F315.56375200000002
F316.43800499999998
S'S1'
p134
S'M'
tp135
a(F318.01998700000001
F320.517853
S'S0'
p136
S'M'
tp137
a(F320.76763999999997
F323.390399
S'S1'
p138
S'M'
tp139
a(F323.390399
F324.43117699999999
S'S0'
p140
S'M'
tp141
a(F324.43117699999999
F324.93074999999999
S'S1'
p142
S'M'
tp143
a.