(lp1
(F0
F3.8999999999999999
S'S0'
p2
VU
tp3
a(F3.8999999999999999
F9.8399999999999999
S'S1'
p4
VU
tp5
a(F12.029999999999999
F23.09
g2
VU
tp6
a(F24.640000000000001
F33.75
g2
VU
tp7
a(F33.75
F35.509999999999998
g4
VU
tp8
a(F37.030000000000001
F48.590000000000003
g2
VU
tp9
a(F48.590000000000003
F55.259999999999998
g4
VU
tp10
a(F56.060000000000002
F61.810000000000002
g2
VU
tp11
a(F61.810000000000002
F64.379999999999995
g4
VU
tp12
a(F64.379999999999995
F66
g2
VU
tp13
a(F66
F69.25
g4
VU
tp14
a(F69.25
F70.439999999999998
g2
VU
tp15
a(F70.439999999999998
F74.290000000000006
g4
VU
tp16
a(F75.370000000000005
F84.129999999999995
g4
VU
tp17
a(F84.129999999999995
F101.64
g2
VU
tp18
a(F101.64
F105.27
g4
VU
tp19
a(F106.04000000000001
F108.68000000000001
g2
VU
tp20
a(F110.12
F112.56999999999999
g2
VU
tp21
a(F113.59
F129.15000000000001
g4
VU
tp22
a(F129.15000000000001
F130.13
g2
VU
tp23
a(F130.13
F130.88
g4
VU
tp24
a(F130.88
F147.30000000000001
g2
VU
tp25
a(F147.30000000000001
F149
g4
VU
tp26
a(F150.58000000000001
F166.69999999999999
g2
VU
tp27
a(F166.69999999999999
F168.06999999999999
g4
VU
tp28
a(F169.80000000000001
F179.94999999999999
g2
VU
tp29
a(F181.34
F184.44
g2
VU
tp30
a(F185.78999999999999
F189.40000000000001
g2
VU
tp31
a(F189.40000000000001
F192.90000000000001
g4
VU
tp32
a(F194.06999999999999
F194.84999999999999
g2
VU
tp33
a(F194.84999999999999
F195.84
g4
VU
tp34
a(F195.84
F198.40000000000001
g2
VU
tp35
a(F199.58000000000001
F200.65000000000001
g2
VU
tp36
a(F202.61000000000001
F210.13
g2
VU
tp37
a(F212.43000000000001
F214.59999999999999
g2
VU
tp38
a(F216.16
F218.86000000000001
g2
VU
tp39
a(F224.19999999999999
F229.78999999999999
g2
VU
tp40
a(F231.58000000000001
F234.69
g2
VU
tp41
a(F237.15000000000001
F240.41
g2
VU
tp42
a(F242.27000000000001
F245.15000000000001
g2
VU
tp43
a(F246.41999999999999
F261.73000000000002
g2
VU
tp44
a(F261.73000000000002
F263.32999999999998
g4
VU
tp45
a(F264.81
F276.27999999999997
g2
VU
tp46
a(F278.16000000000003
F279.12
g2
VU
tp47
a(F280.74000000000001
F283.75
g2
VU
tp48
a(F283.75
F285.85000000000002
g4
VU
tp49
a(F285.85000000000002
F287.68000000000001
g2
VU
tp50
a(F288.76999999999998
F290.01999999999998
g2
VU
tp51
a(F291.79000000000002
F302.72000000000003
g2
VU
tp52
a(F302.72000000000003
F307.12
g4
VU
tp53
a(F308.14999999999998
F315.56999999999999
g2
VU
tp54
a(F315.56999999999999
F316.23000000000002
g4
VU
tp55
a(F316.23000000000002
F318.73000000000002
g2
VU
tp56
a(F318.73000000000002
F319.39999999999998
g4
VU
tp57
a(F319.39999999999998
F324.31999999999999
g2
VU
tp58
a(F324.31999999999999
F326.36000000000001
g4
VU
tp59
a.