(lp1
(F0.087595999999999993
F2.9344779999999999
S'S0'
p2
S'F'
tp3
a(F3.1534689999999999
F14.519097
S'S1'
p4
S'M'
tp5
a(F14.562894999999999
F16.095831
S'S0'
p6
S'F'
tp7
a(F16.161528000000001
F21.154520999999999
S'S1'
p8
S'M'
tp9
a(F24.286090999999999
F25.227751000000001
S'S0'
p10
S'F'
tp11
a(F25.797128000000001
F44.323757999999998
S'S1'
p12
S'M'
tp13
a(F44.936931999999999
F51.659953000000002
S'S0'
p14
S'F'
tp15
a(F52.163632
F59.368431999999999
S'S1'
p16
S'M'
tp17
a(F62.631397
F81.464613999999997
S'S0'
p18
S'F'
tp19
a(F81.508412000000007
F82.931853000000004
S'S1'
p20
S'M'
tp21
a(F84.289597000000001
F97.976528000000002
S'S0'
p22
S'F'
tp23
a(F98.808693000000005
F104.239667
S'S1'
p24
S'M'
tp25
a(F104.261567
F120.05081
S'S0'
p26
S'F'
tp27
a(F120.05081
F121.86843500000001
S'S1'
p28
S'M'
tp29
a(F123.620362
F128.65715299999999
S'S0'
p30
S'F'
tp31
a(F128.832345
F130.03679500000001
S'S1'
p32
S'M'
tp33
a(F130.80326299999999
F132.79608099999999
S'S0'
p34
S'F'
tp35
a(F145.256663
F155.87772100000001
S'S0'
p36
S'F'
tp37
a(F157.432557
F162.140861
S'S1'
p38
S'M'
tp39
a(F162.140861
F164.265073
S'S0'
p40
S'F'
tp41
a(F164.265073
F165.27243100000001
S'S1'
p42
S'M'
tp43
a(F169.542753
F171.38227699999999
S'S0'
p44
S'F'
tp45
a(F171.491772
F172.827617
S'S1'
p46
S'M'
tp47
a(F174.18536
F176.243875
S'S0'
p48
S'F'
tp49
a(F176.440966
F178.45568299999999
S'S1'
p50
S'M'
tp51
a(F178.565178
F179.791527
S'S0'
p52
S'F'
tp53
a.