(lp1
(F0
F1.1299999999999999
S'S0'
p2
VU
tp3
a(F1.1299999999999999
F10.199999999999999
S'S1'
p4
VU
tp5
a(F11.289999999999999
F17.649999999999999
g4
VU
tp6
a(F18.449999999999999
F24.309999999999999
g4
VU
tp7
a(F24.309999999999999
F25.809999999999999
g2
VU
tp8
a(F25.809999999999999
F27.329999999999998
g4
VU
tp9
a(F27.329999999999998
F27.93
g2
VU
tp10
a(F27.93
F29.559999999999999
g4
VU
tp11
a(F30.890000000000001
F37.990000000000002
g4
VU
tp12
a(F39.25
F43.850000000000001
g4
VU
tp13
a(F45.060000000000002
F51.549999999999997
g2
VU
tp14
a(F52.229999999999997
F59.520000000000003
g4
VU
tp15
a(F62.340000000000003
F81.379999999999995
g2
VU
tp16
a(F81.379999999999995
F82.969999999999999
g4
VU
tp17
a(F84.040000000000006
F98.040000000000006
g2
VU
tp18
a(F98.040000000000006
F103.5
g4
VU
tp19
a(F103.5
F119.15000000000001
g2
VU
tp20
a(F119.15000000000001
F121.53
g4
VU
tp21
a(F121.53
F128.90000000000001
g2
VU
tp22
a(F128.90000000000001
F129.96000000000001
g4
VU
tp23
a(F130.84999999999999
F132.69999999999999
g2
VU
tp24
a(F139.77000000000001
F149.13999999999999
g2
VU
tp25
a(F149.13999999999999
F150.71000000000001
g4
VU
tp26
a(F150.71000000000001
F152.77000000000001
g2
VU
tp27
a(F152.77000000000001
F154.97
g4
VU
tp28
a(F154.97
F155.74000000000001
g2
VU
tp29
a(F157.49000000000001
F162.13
g4
VU
tp30
a(F162.13
F164.36000000000001
g2
VU
tp31
a(F164.36000000000001
F165.12
g4
VU
tp32
a(F166.00999999999999
F171.69
g2
VU
tp33
a(F171.69
F172.49000000000001
g4
VU
tp34
a(F174.21000000000001
F176.53
g2
VU
tp35
a(F176.53
F177.61000000000001
g4
VU
tp36
a(F177.61000000000001
F181.83000000000001
g2
VU
tp37
a.